
test_debug:     file format elf32-littlearm


Disassembly of section .init:

00008354 <_init>:
    8354:	e92d4008 	push	{r3, lr}
    8358:	eb000023 	bl	83ec <call_gmon_start>
    835c:	e8bd8008 	pop	{r3, pc}

Disassembly of section .plt:

00008360 <.plt>:
    8360:	e52de004 	push	{lr}		; (str lr, [sp, #-4]!)
    8364:	e59fe004 	ldr	lr, [pc, #4]	; 8370 <_init+0x1c>
    8368:	e08fe00e 	add	lr, pc, lr
    836c:	e5bef008 	ldr	pc, [lr, #8]!
    8370:	00008424 	andeq	r8, r0, r4, lsr #8
    8374:	e28fc600 	add	ip, pc, #0
    8378:	e28cca08 	add	ip, ip, #32768	; 0x8000
    837c:	e5bcf424 	ldr	pc, [ip, #1060]!	; 0x424
    8380:	e28fc600 	add	ip, pc, #0
    8384:	e28cca08 	add	ip, ip, #32768	; 0x8000
    8388:	e5bcf41c 	ldr	pc, [ip, #1052]!	; 0x41c
    838c:	e28fc600 	add	ip, pc, #0
    8390:	e28cca08 	add	ip, ip, #32768	; 0x8000
    8394:	e5bcf414 	ldr	pc, [ip, #1044]!	; 0x414
    8398:	e28fc600 	add	ip, pc, #0
    839c:	e28cca08 	add	ip, ip, #32768	; 0x8000
    83a0:	e5bcf40c 	ldr	pc, [ip, #1036]!	; 0x40c
    83a4:	e28fc600 	add	ip, pc, #0
    83a8:	e28cca08 	add	ip, ip, #32768	; 0x8000
    83ac:	e5bcf404 	ldr	pc, [ip, #1028]!	; 0x404

Disassembly of section .text:

000083b0 <_start>:
    83b0:	e3a0b000 	mov	fp, #0
    83b4:	e3a0e000 	mov	lr, #0
    83b8:	e49d1004 	pop	{r1}		; (ldr r1, [sp], #4)
    83bc:	e1a0200d 	mov	r2, sp
    83c0:	e52d2004 	push	{r2}		; (str r2, [sp, #-4]!)
    83c4:	e52d0004 	push	{r0}		; (str r0, [sp, #-4]!)
    83c8:	e59fc010 	ldr	ip, [pc, #16]	; 83e0 <_start+0x30>
    83cc:	e52dc004 	push	{ip}		; (str ip, [sp, #-4]!)
    83d0:	e59f000c 	ldr	r0, [pc, #12]	; 83e4 <_start+0x34>
    83d4:	e59f300c 	ldr	r3, [pc, #12]	; 83e8 <_start+0x38>
    83d8:	ebffffe8 	bl	8380 <_init+0x2c>
    83dc:	ebffffe4 	bl	8374 <_init+0x20>
    83e0:	00008510 	andeq	r8, r0, r0, lsl r5
    83e4:	000084e8 	andeq	r8, r0, r8, ror #9
    83e8:	00008514 	andeq	r8, r0, r4, lsl r5

000083ec <call_gmon_start>:
    83ec:	e59f3014 	ldr	r3, [pc, #20]	; 8408 <call_gmon_start+0x1c>
    83f0:	e59f0014 	ldr	r0, [pc, #20]	; 840c <call_gmon_start+0x20>
    83f4:	e08f3003 	add	r3, pc, r3
    83f8:	e7932000 	ldr	r2, [r3, r0]
    83fc:	e3520000 	cmp	r2, #0
    8400:	012fff1e 	bxeq	lr
    8404:	eaffffe0 	b	838c <_init+0x38>
    8408:	00008398 	muleq	r0, r8, r3
    840c:	00000020 	andeq	r0, r0, r0, lsr #32

00008410 <__do_global_dtors_aux>:
    8410:	e59f3010 	ldr	r3, [pc, #16]	; 8428 <__do_global_dtors_aux+0x18>
    8414:	e5d32000 	ldrb	r2, [r3]
    8418:	e3520000 	cmp	r2, #0
    841c:	03a02001 	moveq	r2, #1
    8420:	05c32000 	strbeq	r2, [r3]
    8424:	e12fff1e 	bx	lr
    8428:	000107c0 	andeq	r0, r1, r0, asr #15

0000842c <frame_dummy>:
    842c:	e59f0020 	ldr	r0, [pc, #32]	; 8454 <frame_dummy+0x28>
    8430:	e92d4008 	push	{r3, lr}
    8434:	e5903000 	ldr	r3, [r0]
    8438:	e3530000 	cmp	r3, #0
    843c:	08bd8008 	popeq	{r3, pc}
    8440:	e59f3010 	ldr	r3, [pc, #16]	; 8458 <frame_dummy+0x2c>
    8444:	e3530000 	cmp	r3, #0
    8448:	08bd8008 	popeq	{r3, pc}
    844c:	e12fff33 	blx	r3
    8450:	e8bd8008 	pop	{r3, pc}
    8454:	000106a0 	andeq	r0, r1, r0, lsr #13
    8458:	00000000 	andeq	r0, r0, r0

0000845c <C>:
    845c:	e92d4800 	push	{fp, lr}
    8460:	e28db004 	add	fp, sp, #4
    8464:	e24dd008 	sub	sp, sp, #8
    8468:	e3a03000 	mov	r3, #0
    846c:	e50b3008 	str	r3, [fp, #-8]
    8470:	e59f2048 	ldr	r2, [pc, #72]	; 84c0 <C+0x64>
    8474:	e59f3048 	ldr	r3, [pc, #72]	; 84c4 <C+0x68>
    8478:	e5933000 	ldr	r3, [r3]
    847c:	e1a00002 	mov	r0, r2
    8480:	e1a01003 	mov	r1, r3
    8484:	e51b2008 	ldr	r2, [fp, #-8]
    8488:	ebffffc2 	bl	8398 <_init+0x44>
    848c:	e59f3030 	ldr	r3, [pc, #48]	; 84c4 <C+0x68>
    8490:	e5933000 	ldr	r3, [r3]
    8494:	e2832001 	add	r2, r3, #1
    8498:	e59f3024 	ldr	r3, [pc, #36]	; 84c4 <C+0x68>
    849c:	e5832000 	str	r2, [r3]
    84a0:	e3a00001 	mov	r0, #1
    84a4:	ebffffbe 	bl	83a4 <_init+0x50>
    84a8:	e51b3008 	ldr	r3, [fp, #-8]
    84ac:	e2833002 	add	r3, r3, #2
    84b0:	e50b3008 	str	r3, [fp, #-8]
    84b4:	e3a00003 	mov	r0, #3
    84b8:	ebffffb9 	bl	83a4 <_init+0x50>
    84bc:	eaffffeb 	b	8470 <C+0x14>
    84c0:	000085ec 	andeq	r8, r0, ip, ror #11
    84c4:	000107c4 	andeq	r0, r1, r4, asr #15

000084c8 <B>:
    84c8:	e92d4800 	push	{fp, lr}
    84cc:	e28db004 	add	fp, sp, #4
    84d0:	ebffffe1 	bl	845c <C>
    84d4:	e8bd8800 	pop	{fp, pc}

000084d8 <A>:
    84d8:	e92d4800 	push	{fp, lr}
    84dc:	e28db004 	add	fp, sp, #4
    84e0:	ebfffff8 	bl	84c8 <B>
    84e4:	e8bd8800 	pop	{fp, pc}

000084e8 <main>:
    84e8:	e92d4800 	push	{fp, lr}
    84ec:	e28db004 	add	fp, sp, #4
    84f0:	e24dd008 	sub	sp, sp, #8
    84f4:	e50b0008 	str	r0, [fp, #-8]
    84f8:	e50b100c 	str	r1, [fp, #-12]
    84fc:	ebfffff5 	bl	84d8 <A>
    8500:	e3a03000 	mov	r3, #0
    8504:	e1a00003 	mov	r0, r3
    8508:	e24bd004 	sub	sp, fp, #4
    850c:	e8bd8800 	pop	{fp, pc}

00008510 <__libc_csu_fini>:
    8510:	e12fff1e 	bx	lr

00008514 <__libc_csu_init>:
    8514:	e92d47f0 	push	{r4, r5, r6, r7, r8, r9, sl, lr}
    8518:	e1a08000 	mov	r8, r0
    851c:	e1a07001 	mov	r7, r1
    8520:	e1a06002 	mov	r6, r2
    8524:	ebffff8a 	bl	8354 <_init>
    8528:	e59f30a4 	ldr	r3, [pc, #164]	; 85d4 <__libc_csu_init+0xc0>
    852c:	e59f00a4 	ldr	r0, [pc, #164]	; 85d8 <__libc_csu_init+0xc4>
    8530:	e59fa0a4 	ldr	sl, [pc, #164]	; 85dc <__libc_csu_init+0xc8>
    8534:	e0639000 	rsb	r9, r3, r0
    8538:	e08fa00a 	add	sl, pc, sl
    853c:	e1b09149 	asrs	r9, r9, #2
    8540:	e08aa003 	add	sl, sl, r3
    8544:	08bd87f0 	popeq	{r4, r5, r6, r7, r8, r9, sl, pc}
    8548:	e3a04001 	mov	r4, #1
    854c:	e1a00008 	mov	r0, r8
    8550:	e1a01007 	mov	r1, r7
    8554:	e1a02006 	mov	r2, r6
    8558:	e2495001 	sub	r5, r9, #1
    855c:	e1a0e00f 	mov	lr, pc
    8560:	e59af000 	ldr	pc, [sl]
    8564:	e1540009 	cmp	r4, r9
    8568:	e0055004 	and	r5, r5, r4
    856c:	28bd87f0 	popcs	{r4, r5, r6, r7, r8, r9, sl, pc}
    8570:	e3550000 	cmp	r5, #0
    8574:	0a000007 	beq	8598 <__libc_csu_init+0x84>
    8578:	e1a00008 	mov	r0, r8
    857c:	e1a01007 	mov	r1, r7
    8580:	e1a02006 	mov	r2, r6
    8584:	e3a04002 	mov	r4, #2
    8588:	e1a0e00f 	mov	lr, pc
    858c:	e59af004 	ldr	pc, [sl, #4]
    8590:	e1540009 	cmp	r4, r9
    8594:	28bd87f0 	popcs	{r4, r5, r6, r7, r8, r9, sl, pc}
    8598:	e2845001 	add	r5, r4, #1
    859c:	e1a00008 	mov	r0, r8
    85a0:	e1a01007 	mov	r1, r7
    85a4:	e1a02006 	mov	r2, r6
    85a8:	e1a0e00f 	mov	lr, pc
    85ac:	e79af104 	ldr	pc, [sl, r4, lsl #2]
    85b0:	e2854001 	add	r4, r5, #1
    85b4:	e1a00008 	mov	r0, r8
    85b8:	e1a01007 	mov	r1, r7
    85bc:	e1a02006 	mov	r2, r6
    85c0:	e1a0e00f 	mov	lr, pc
    85c4:	e79af105 	ldr	pc, [sl, r5, lsl #2]
    85c8:	e1540009 	cmp	r4, r9
    85cc:	3afffff1 	bcc	8598 <__libc_csu_init+0x84>
    85d0:	e8bd87f0 	pop	{r4, r5, r6, r7, r8, r9, sl, pc}
    85d4:	ffffff04 	undefined instruction 0xffffff04
    85d8:	ffffff08 	undefined instruction 0xffffff08
    85dc:	00008254 	andeq	r8, r0, r4, asr r2

Disassembly of section .fini:

000085e0 <_fini>:
    85e0:	e92d4008 	push	{r3, lr}
    85e4:	e8bd8008 	pop	{r3, pc}
