
test.ko:     file format elf32-littlearm


Disassembly of section .text:

00000000 <ker_rw_open>:
   0:	e1a0c00d 	mov	ip, sp
   4:	e92dd800 	push	{fp, ip, lr, pc}
   8:	e24cb004 	sub	fp, ip, #4
									c:	eafffffe 	b	c <ker_rw_open+0xc>

00000010 <cleanup_module>:
  10:	e1a0c00d 	mov	ip, sp
  14:	e92dd818 	push	{r3, r4, fp, ip, lr, pc}
  18:	e24cb004 	sub	fp, ip, #4
  1c:	e3004000 	movw	r4, #0
  20:	e3404000 	movt	r4, #0
  24:	e8940003 	ldm	r4, {r0, r1}
  28:	e1a01a01 	lsl	r1, r1, #20
  2c:	ebfffffe 	bl	0 <device_destroy>
  30:	e5940000 	ldr	r0, [r4]
  34:	ebfffffe 	bl	0 <class_destroy>
  38:	e5940004 	ldr	r0, [r4, #4]
  3c:	e3003000 	movw	r3, #0
  40:	e3a01000 	mov	r1, #0
  44:	e3403000 	movt	r3, #0
  48:	e3a02c01 	mov	r2, #256	; 0x100
  4c:	ebfffffe 	bl	0 <__unregister_chrdev>
  50:	e89da818 	ldm	sp, {r3, r4, fp, sp, pc}

00000054 <ker_rw_ioctl>:
  54:	e1a0c00d 	mov	ip, sp
  58:	e92dd870 	push	{r4, r5, r6, fp, ip, lr, pc}
  5c:	e24cb004 	sub	fp, ip, #4
  60:	e24dd014 	sub	sp, sp, #20
  64:	e1a04002 	mov	r4, r2
  68:	e1a06001 	mov	r6, r1
  6c:	e1a0200d 	mov	r2, sp
  70:	e3c21d7f 	bic	r1, r2, #8128	; 0x1fc0
  74:	e3c1003f 	bic	r0, r1, #63	; 0x3f
  78:	e5903008 	ldr	r3, [r0, #8]
  7c:	e2942008 	adds	r2, r4, #8
  80:	30d22003 	sbcscc	r2, r2, r3
  84:	33a03000 	movcc	r3, #0
  88:	e3530000 	cmp	r3, #0
  8c:	1a000014 	bne	e4 <ker_rw_ioctl+0x90>
  90:	e24b0028 	sub	r0, fp, #40	; 0x28
  94:	e1a01004 	mov	r1, r4
  98:	e3a02008 	mov	r2, #8
  9c:	ebfffffe 	bl	0 <__copy_from_user>
  a0:	e51b0028 	ldr	r0, [fp, #-40]	; 0x28
  a4:	e3a01004 	mov	r1, #4
  a8:	e3a02000 	mov	r2, #0
  ac:	e51b5024 	ldr	r5, [fp, #-36]	; 0x24
  b0:	e2466003 	sub	r6, r6, #3
  b4:	e50b5020 	str	r5, [fp, #-32]
  b8:	ebfffffe 	bl	0 <__arm_ioremap>
  bc:	e1a05000 	mov	r5, r0
  c0:	e3560005 	cmp	r6, #5
  c4:	979ff106 	ldrls	pc, [pc, r6, lsl #2]
  c8:	ea000010 	b	110 <ker_rw_ioctl+0xbc>
  cc:	00000120 	andeq	r0, r0, r0, lsr #2
  d0:	00000160 	andeq	r0, r0, r0, ror #2
  d4:	0000016c 	andeq	r0, r0, ip, ror #2
  d8:	00000178 	andeq	r0, r0, r8, ror r1
  dc:	00000184 	andeq	r0, r0, r4, lsl #3
  e0:	000000f4 	strdeq	r0, [r0], -r4
  e4:	e24b0028 	sub	r0, fp, #40	; 0x28
  e8:	e3a01008 	mov	r1, #8
  ec:	ebfffffe 	bl	0 <__memzero>
  f0:	eaffffea 	b	a0 <ker_rw_ioctl+0x4c>
  f4:	e51bc020 	ldr	ip, [fp, #-32]
  f8:	e580c000 	str	ip, [r0]
  fc:	e1a00005 	mov	r0, r5
 100:	ebfffffe 	bl	0 <__iounmap>
 104:	e3a00000 	mov	r0, #0
 108:	e24bd018 	sub	sp, fp, #24
 10c:	e89da870 	ldm	sp, {r4, r5, r6, fp, sp, pc}
 110:	e3000000 	movw	r0, #0
 114:	e3400000 	movt	r0, #0
 118:	ebfffffe 	bl	0 <printk>
 11c:	eafffff6 	b	fc <ker_rw_ioctl+0xa8>
 120:	e2840004 	add	r0, r4, #4
 124:	e5d53000 	ldrb	r3, [r5]
 128:	e50b3020 	str	r3, [fp, #-32]
 12c:	e1a0100d 	mov	r1, sp
 130:	e3c13d7f 	bic	r3, r1, #8128	; 0x1fc0
 134:	e3c3e03f 	bic	lr, r3, #63	; 0x3f
 138:	e59ec008 	ldr	ip, [lr, #8]
 13c:	e2902004 	adds	r2, r0, #4
 140:	30d2200c 	sbcscc	r2, r2, ip
 144:	33a0c000 	movcc	ip, #0
 148:	e35c0000 	cmp	ip, #0
 14c:	1affffea 	bne	fc <ker_rw_ioctl+0xa8>
 150:	e24b1020 	sub	r1, fp, #32
 154:	e3a02004 	mov	r2, #4
 158:	ebfffffe 	bl	0 <__copy_to_user>
 15c:	eaffffe6 	b	fc <ker_rw_ioctl+0xa8>
 160:	e2840004 	add	r0, r4, #4
 164:	e1d530b0 	ldrh	r3, [r5]
 168:	eaffffee 	b	128 <ker_rw_ioctl+0xd4>
 16c:	e2840004 	add	r0, r4, #4
 170:	e5953000 	ldr	r3, [r5]
 174:	eaffffeb 	b	128 <ker_rw_ioctl+0xd4>
 178:	e55b0020 	ldrb	r0, [fp, #-32]
 17c:	e5c50000 	strb	r0, [r5]
 180:	eaffffdd 	b	fc <ker_rw_ioctl+0xa8>
 184:	e15b22b0 	ldrh	r2, [fp, #-32]	; 0xffffffe0
 188:	e1c020b0 	strh	r2, [r0]
 18c:	eaffffda 	b	fc <ker_rw_ioctl+0xa8>

00000190 <init_module>:
 190:	e1a0c00d 	mov	ip, sp
 194:	e92dd830 	push	{r4, r5, fp, ip, lr, pc}
 198:	e24cb004 	sub	fp, ip, #4
 19c:	e24dd008 	sub	sp, sp, #8
 1a0:	e1a0400d 	mov	r4, sp
 1a4:	e3c41d7f 	bic	r1, r4, #8128	; 0x1fc0
 1a8:	e3c1003f 	bic	r0, r1, #63	; 0x3f
 1ac:	e590300c 	ldr	r3, [r0, #12]
 1b0:	e3000000 	movw	r0, #0
 1b4:	e2832f81 	add	r2, r3, #516	; 0x204
 1b8:	e5931128 	ldr	r1, [r3, #296]	; 0x128
 1bc:	e3400000 	movt	r0, #0
 1c0:	ebfffffe 	bl	0 <printk>
 1c4:	e3001169 	movw	r1, #361	; 0x169
 1c8:	e3000000 	movw	r0, #0
 1cc:	e3400000 	movt	r0, #0
 1d0:	ebfffffe 	bl	0 <printk>
 1d4:	e3005000 	movw	r5, #0
 1d8:	e3a00000 	mov	r0, #0
 1dc:	e3405000 	movt	r5, #0
 1e0:	e1a01000 	mov	r1, r0
 1e4:	e1a03005 	mov	r3, r5
 1e8:	e3a02c01 	mov	r2, #256	; 0x100
 1ec:	e300c000 	movw	ip, #0
 1f0:	e3004000 	movw	r4, #0
 1f4:	e340c000 	movt	ip, #0
 1f8:	e3404000 	movt	r4, #0
 1fc:	e58dc000 	str	ip, [sp]
 200:	ebfffffe 	bl	0 <__register_chrdev>
 204:	e1a01005 	mov	r1, r5
 208:	e5840004 	str	r0, [r4, #4]
 20c:	e2842008 	add	r2, r4, #8
 210:	e3000000 	movw	r0, #0
 214:	e3400000 	movt	r0, #0
 218:	ebfffffe 	bl	0 <__class_create>
 21c:	e5942004 	ldr	r2, [r4, #4]
 220:	e3a01000 	mov	r1, #0
 224:	e58d5000 	str	r5, [sp]
 228:	e1a02a02 	lsl	r2, r2, #20
 22c:	e1a03001 	mov	r3, r1
 230:	e5840000 	str	r0, [r4]
 234:	ebfffffe 	bl	0 <device_create>
 238:	e3a00000 	mov	r0, #0
 23c:	e24bd014 	sub	sp, fp, #20
 240:	e89da830 	ldm	sp, {r4, r5, fp, sp, pc}

Disassembly of section .modinfo:

00000000 <__mod_license134>:
   0:	6563696c 	strbvs	r6, [r3, #-2412]!	; 0x96c
   4:	3d65736e 	stclcc	3, cr7, [r5, #-440]!	; 0xfffffe48
   8:	004c5047 	subeq	r5, ip, r7, asr #32

0000000c <__module_depends>:
   c:	65706564 	ldrbvs	r6, [r0, #-1380]!	; 0x564
  10:	3d73646e 	cfldrdcc	mvd6, [r3, #-440]!	; 0xfffffe48
	...

00000015 <__mod_vermagic5>:
  15:	6d726576 	cfldr64vs	mvdx6, [r2, #-472]!	; 0xfffffe28
  19:	63696761 	cmnvs	r9, #25427968	; 0x1840000
  1d:	302e333d 	eorcc	r3, lr, sp, lsr r3
  21:	2035312e 	eorscs	r3, r5, lr, lsr #2
  25:	20504d53 	subscs	r4, r0, r3, asr sp
  29:	65657270 	strbvs	r7, [r5, #-624]!	; 0x270
  2d:	2074706d 	rsbscs	r7, r4, sp, rrx
  31:	5f646f6d 	svcpl	0x00646f6d
  35:	6f6c6e75 	svcvs	0x006c6e75
  39:	41206461 	teqmi	r0, r1, ror #8
  3d:	37764d52 	undefined instruction 0x37764d52
  41:	76327020 	ldrtvc	r7, [r2], -r0, lsr #32
  45:	Address 0x00000045 is out of bounds.

